; Function Attrs: mustprogress uwtable
define void @_ZN4toku12range_buffer6appendEPK10__toku_dbtS3_b(ptr noundef nonnull align 8 dereferenceable(60) %0, ptr noundef %1, ptr noundef %2, i1 noundef zeroext %3) local_unnamed_addr #1 align 2 {
  %5 = tail call noundef zeroext i1 @_Z15toku_dbt_equalsPK10__toku_dbtS1_(ptr noundef %1, ptr noundef %2)
  br i1 %5, label %6, label %28

6:                                                ; preds = %4
  %7 = getelementptr inbounds nuw i8, ptr %1, i64 8
  %8 = load i64, ptr %7, align 8, !tbaa !15
  %9 = add i64 %8, 10
  %10 = tail call noundef ptr @_ZN8memarena17malloc_from_arenaEm(ptr noundef nonnull align 8 dereferenceable(60) %0, i64 noundef %9)
  %11 = zext i1 %3 to i8
  %12 = tail call noundef ptr @_Z26toku_dbt_negative_infinityv()
  %13 = icmp eq ptr %1, %12
  %14 = zext i1 %13 to i8
  %15 = tail call noundef ptr @_Z26toku_dbt_positive_infinityv()
  %16 = icmp eq ptr %1, %15
  %17 = zext i1 %16 to i8
  %18 = tail call noundef zeroext i1 @_Z20toku_dbt_is_infinitePK10__toku_dbt(ptr noundef %1)
  br i1 %18, label %_ZN4toku12range_buffer13record_header4initEPK10__toku_dbtS4_b.exit.i, label %19

19:                                               ; preds = %6
  %20 = load i64, ptr %7, align 8, !tbaa !15
  %21 = trunc i64 %20 to i16
  br label %_ZN4toku12range_buffer13record_header4initEPK10__toku_dbtS4_b.exit.i

_ZN4toku12range_buffer13record_header4initEPK10__toku_dbtS4_b.exit.i: ; preds = %19, %6
  %22 = phi i16 [ %21, %19 ], [ 0, %6 ]
  store i8 %14, ptr %10, align 1
  %.sroa.6.0..sroa_idx.i = getelementptr inbounds nuw i8, ptr %10, i64 1
  store i8 %17, ptr %.sroa.6.0..sroa_idx.i, align 1
  %.sroa.9.0..sroa_idx.i = getelementptr inbounds nuw i8, ptr %10, i64 2
  store i8 %17, ptr %.sroa.9.0..sroa_idx.i, align 1
  %.sroa.10.0..sroa_idx.i = getelementptr inbounds nuw i8, ptr %10, i64 3
  store i8 %14, ptr %.sroa.10.0..sroa_idx.i, align 1
  %.sroa.11.0..sroa_idx.i = getelementptr inbounds nuw i8, ptr %10, i64 4
  store i16 %22, ptr %.sroa.11.0..sroa_idx.i, align 1
  %.sroa.12.0..sroa_idx.i = getelementptr inbounds nuw i8, ptr %10, i64 6
  store i16 0, ptr %.sroa.12.0..sroa_idx.i, align 1
  %.sroa.13.0..sroa_idx.i = getelementptr inbounds nuw i8, ptr %10, i64 8
  store i8 %11, ptr %.sroa.13.0..sroa_idx.i, align 1
  %23 = or i1 %13, %16
  br i1 %23, label %_ZN4toku12range_buffer12append_pointEPK10__toku_dbtb.exit, label %24

24:                                               ; preds = %_ZN4toku12range_buffer13record_header4initEPK10__toku_dbtS4_b.exit.i
  %25 = getelementptr inbounds nuw i8, ptr %10, i64 10
  %26 = load ptr, ptr %1, align 8, !tbaa !45
  %27 = load i64, ptr %7, align 8, !tbaa !15
  tail call void @llvm.memcpy.p0.p0.i64(ptr nonnull align 1 %25, ptr align 1 %26, i64 %27, i1 false)
  br label %_ZN4toku12range_buffer12append_pointEPK10__toku_dbtb.exit

28:                                               ; preds = %4
  tail call void @_ZN4toku12range_buffer12append_rangeEPK10__toku_dbtS3_b(ptr noundef nonnull align 8 dereferenceable(60) %0, ptr noundef %1, ptr noundef %2, i1 noundef zeroext %3)
  br label %_ZN4toku12range_buffer12append_pointEPK10__toku_dbtb.exit

_ZN4toku12range_buffer12append_pointEPK10__toku_dbtb.exit: ; preds = %24, %_ZN4toku12range_buffer13record_header4initEPK10__toku_dbtS4_b.exit.i, %28
  %29 = getelementptr inbounds nuw i8, ptr %0, i64 56
  %30 = load i32, ptr %29, align 8, !tbaa !39
  %31 = add nsw i32 %30, 1
  store i32 %31, ptr %29, align 8, !tbaa !39
  ret void
}